	.file	"main.c"
	.option nopic
	.attribute arch, "rv32i2p0"
	.attribute unaligned_access, 0
	.attribute stack_align, 16
	.text
.Ltext0:
	.cfi_sections	.debug_frame
	.align	2
	.globl	print
	.type	print, @function
print:
.LFB7:
	.file 1 "src/main.c"
	.loc 1 6 27
	.cfi_startproc
.LVL0:
	.loc 1 7 2
.LBB10:
.LBB11:
.LBB12:
.LBB13:
	.file 2 "src/uart.h"
	.loc 2 24 13 is_stmt 0
	li	a3,-268369920
.L2:
.LBE13:
.LBE12:
.LBE11:
.LBE10:
	.loc 1 7 8
	lbu	a4,0(a0)
	.loc 1 7 7
	bne	a4,zero,.L3
	.loc 1 11 1
	ret
.L3:
.LBB17:
.LBB16:
	.loc 2 31 41 is_stmt 1
.LVL1:
.LBB15:
.LBB14:
	.loc 2 24 2
	.loc 2 24 13 is_stmt 0
	lw	a5,4(a3)
.LVL2:
	.loc 2 24 22
	srli	a5,a5,16
	.loc 2 24 29
	andi	a5,a5,255
.LBE14:
.LBE15:
	.loc 2 31 7
	beq	a5,zero,.L3
	.loc 2 32 2 is_stmt 1
	.loc 2 32 12 is_stmt 0
	sw	a4,0(a3)
.LBE16:
.LBE17:
	.loc 1 9 3 is_stmt 1
	.loc 1 9 6 is_stmt 0
	addi	a0,a0,1
.LVL3:
	j	.L2
	.cfi_endproc
.LFE7:
	.size	print, .-print
	.align	2
	.globl	println
	.type	println, @function
println:
.LFB8:
	.loc 1 12 29 is_stmt 1
	.cfi_startproc
.LVL4:
	.loc 1 13 2
	.loc 1 12 29 is_stmt 0
	addi	sp,sp,-16
	.cfi_def_cfa_offset 16
	sw	ra,12(sp)
	.cfi_offset 1, -4
	.loc 1 13 2
	call	print
.LVL5:
	.loc 1 14 2 is_stmt 1
.LBB22:
.LBB23:
.LBB24:
.LBB25:
	.loc 2 24 13 is_stmt 0
	li	a4,-268369920
.L8:
.LBE25:
.LBE24:
	.loc 2 31 41 is_stmt 1
.LVL6:
.LBB27:
.LBB26:
	.loc 2 24 2
	.loc 2 24 13 is_stmt 0
	lw	a5,4(a4)
.LVL7:
	.loc 2 24 22
	srli	a5,a5,16
	.loc 2 24 29
	andi	a5,a5,255
.LBE26:
.LBE27:
	.loc 2 31 7
	beq	a5,zero,.L8
	.loc 2 32 2 is_stmt 1
	.loc 2 32 12 is_stmt 0
	li	a5,10
	sw	a5,0(a4)
.LVL8:
.LBE23:
.LBE22:
	.loc 1 15 1
	lw	ra,12(sp)
	.cfi_restore 1
	addi	sp,sp,16
	.cfi_def_cfa_offset 0
	jr	ra
	.cfi_endproc
.LFE8:
	.size	println, .-println
	.align	2
	.globl	delay
	.type	delay, @function
delay:
.LFB9:
	.loc 1 17 27 is_stmt 1
	.cfi_startproc
.LVL9:
	.loc 1 18 2
.LBB28:
	.loc 1 18 6
	.loc 1 18 10 is_stmt 0
	li	a5,0
.LBB29:
	.loc 1 19 19
	li	a4,-268435456
.LVL10:
.L13:
.LBE29:
	.loc 1 18 2 discriminator 1
	bne	a5,a0,.L14
.LBE28:
	.loc 1 21 1
	ret
.L14:
.LBB31:
.LBB30:
	.loc 1 19 3 is_stmt 1 discriminator 3
	.loc 1 19 19 is_stmt 0 discriminator 3
	lw	a3,4(a4)
.LBE30:
	.loc 1 18 23 discriminator 3
	addi	a5,a5,1
.LVL11:
	j	.L13
.LBE31:
	.cfi_endproc
.LFE9:
	.size	delay, .-delay
	.section	.text.startup,"ax",@progbits
	.align	2
	.globl	main
	.type	main, @function
main:
.LFB10:
	.loc 1 23 13 is_stmt 1
	.cfi_startproc
	.loc 1 24 5
	.loc 1 23 13 is_stmt 0
	addi	sp,sp,-32
	.cfi_def_cfa_offset 32
	sw	s0,24(sp)
	sw	s1,20(sp)
	sw	s2,16(sp)
	sw	s3,12(sp)
	sw	s4,8(sp)
	sw	s5,4(sp)
	sw	ra,28(sp)
	.cfi_offset 8, -8
	.cfi_offset 9, -12
	.cfi_offset 18, -16
	.cfi_offset 19, -20
	.cfi_offset 20, -24
	.cfi_offset 21, -28
	.cfi_offset 1, -4
	.loc 1 24 27
	li	a5,-268435456
	li	a4,15
	sw	a4,8(a5)
	.loc 1 25 2 is_stmt 1
	.loc 1 26 5 is_stmt 0
	lui	a0,%hi(.LC0)
	.loc 1 25 17
	li	a4,1
	sw	a4,4(a5)
	.loc 1 26 5 is_stmt 1
	addi	a0,a0,%lo(.LC0)
.LBB32:
	.loc 1 32 7 is_stmt 0
	li	s0,1998848
.LBE32:
	.loc 1 26 5
	call	println
.LVL12:
	.loc 1 27 5 is_stmt 1
	.loc 1 28 2
.LBB33:
	.loc 1 31 22 is_stmt 0
	li	s1,-268435456
	li	s5,1
	.loc 1 32 7
	addi	s0,s0,1152
	.loc 1 31 22
	li	s2,2
	li	s3,4
.LBE33:
.LBB34:
	.loc 1 35 19
	li	s4,8
.L16:
.LBE34:
	.loc 1 29 5 is_stmt 1
	.loc 1 30 6
.LBB35:
	.loc 1 30 10
.LVL13:
	.loc 1 31 7
	.loc 1 32 7 is_stmt 0
	mv	a0,s0
	.loc 1 31 22
	sw	s5,4(s1)
	.loc 1 32 7 is_stmt 1
	call	delay
.LVL14:
	.loc 1 31 7
	.loc 1 32 7 is_stmt 0
	mv	a0,s0
	.loc 1 31 22
	sw	s2,4(s1)
	.loc 1 32 7 is_stmt 1
	call	delay
.LVL15:
	.loc 1 31 7
	.loc 1 32 7 is_stmt 0
	mv	a0,s0
	.loc 1 31 22
	sw	s3,4(s1)
	.loc 1 32 7 is_stmt 1
	call	delay
.LVL16:
.LBE35:
.LBB36:
	.loc 1 35 4
	.loc 1 36 4 is_stmt 0
	mv	a0,s0
	.loc 1 35 19
	sw	s4,4(s1)
	.loc 1 36 4 is_stmt 1
	call	delay
.LVL17:
	.loc 1 35 4
	.loc 1 36 4 is_stmt 0
	mv	a0,s0
	.loc 1 35 19
	sw	s3,4(s1)
	.loc 1 36 4 is_stmt 1
	call	delay
.LVL18:
	.loc 1 35 4
	.loc 1 36 4 is_stmt 0
	mv	a0,s0
	.loc 1 35 19
	sw	s2,4(s1)
	.loc 1 36 4 is_stmt 1
	call	delay
.LVL19:
	j	.L16
.LBE36:
	.cfi_endproc
.LFE10:
	.size	main, .-main
	.text
	.align	2
	.globl	irqCallback
	.type	irqCallback, @function
irqCallback:
.LFB11:
	.loc 1 41 19
	.cfi_startproc
	.loc 1 42 1
	ret
	.cfi_endproc
.LFE11:
	.size	irqCallback, .-irqCallback
	.section	.rodata.str1.4,"aMS",@progbits,1
	.align	2
.LC0:
	.string	"hello world arty a7 v1"
	.text
.Letext0:
	.file 3 "/opt/riscv/riscv64-unknown-elf/include/machine/_default_types.h"
	.file 4 "/opt/riscv/riscv64-unknown-elf/include/sys/_stdint.h"
	.file 5 "src/gpio.h"